target datalayout = "e-m:e-p270:32:32-p271:32:32-p272:64:64-i64:64-i128:128-f80:128-n8:16:32:64-S128"
target triple = "x86_64-pc-linux-gnu"

%struct._lv_svg_render_hal = type { ptr, ptr }
%struct._lv_vector_draw_dsc_t = type { %struct._lv_vector_fill_dsc_t, %struct._lv_vector_stroke_dsc_t, %struct._lv_matrix_t, i32, %struct.lv_area_t }
%struct._lv_vector_fill_dsc_t = type { i32, %struct.lv_color32_t, i8, i32, %struct._lv_draw_image_dsc_t, %struct._lv_vector_gradient_t, %struct._lv_matrix_t }
%struct.lv_color32_t = type { i8, i8, i8, i8 }
%struct._lv_draw_image_dsc_t = type { %struct.lv_draw_dsc_base_t, ptr, %struct.lv_image_header_t, i32, i32, i32, i32, i32, %struct.lv_point_t, %struct.lv_color_t, i8, i8, i8, ptr, %struct.lv_area_t, i32, ptr }
%struct.lv_draw_dsc_base_t = type { ptr, i32, i32, i32, ptr, i64, ptr }
%struct.lv_image_header_t = type <{ i64, i32 }>
%struct.lv_point_t = type { i32, i32 }
%struct.lv_color_t = type { i8, i8, i8 }
%struct._lv_vector_gradient_t = type { i32, [2 x %struct.lv_gradient_stop_t], i16, float, float, float, float, float, float, float, i32 }
%struct.lv_gradient_stop_t = type { %struct.lv_color_t, i8, i8 }
%struct._lv_vector_stroke_dsc_t = type { i32, %struct.lv_color32_t, i8, float, %struct._lv_array_t, i32, i32, i16, %struct._lv_vector_gradient_t, %struct._lv_matrix_t }
%struct._lv_array_t = type { ptr, i32, i32, i32, i8 }
%struct._lv_matrix_t = type { [3 x [3 x float]] }
%struct.lv_area_t = type { i32, i32, i32, i32 }
%struct._lv_svg_render_obj = type { ptr, i32, ptr, %struct._lv_vector_draw_dsc_t, %struct._lv_matrix_t, ptr, ptr, ptr, ptr, ptr, ptr, ptr, ptr, ptr }
%struct.lv_svg_render_image_t = type { %struct._lv_svg_render_obj, float, float, float, float, %struct._lv_draw_image_dsc_t, i32 }
%struct.lv_svg_attr_t = type { i8, i8, i8, %union.lv_svg_attr_value_t }
%union.lv_svg_attr_value_t = type { ptr }

@hal_funcs = internal global %struct._lv_svg_render_hal zeroinitializer, align 8

; Function Attrs: nounwind uwtable
define internal void @_set_image_attr(ptr noundef %0, ptr noundef %1, ptr noundef %2) #0 {
  %4 = alloca ptr, align 8
  %5 = alloca ptr, align 8
  %6 = alloca ptr, align 8
  %7 = alloca ptr, align 8
  %8 = alloca ptr, align 8
  store ptr %0, ptr %4, align 8, !tbaa !3
  store ptr %1, ptr %5, align 8, !tbaa !3
  store ptr %2, ptr %6, align 8, !tbaa !3
  %9 = load ptr, ptr %4, align 8, !tbaa !3
  %10 = load ptr, ptr %5, align 8, !tbaa !3
  %11 = load ptr, ptr %6, align 8, !tbaa !3
  call void @_set_attr(ptr noundef %9, ptr noundef %10, ptr noundef %11)
  call void @llvm.lifetime.start.p0(i64 8, ptr %7) #8
  %12 = load ptr, ptr %4, align 8, !tbaa !3
  store ptr %12, ptr %7, align 8, !tbaa !3
  %13 = load ptr, ptr %6, align 8, !tbaa !3
  %14 = getelementptr inbounds nuw %struct.lv_svg_attr_t, ptr %13, i32 0, i32 0
  %15 = load i8, ptr %14, align 8, !tbaa !154
  %16 = zext i8 %15 to i32
  switch i32 %16, label %75 [
    i32 11, label %17
    i32 12, label %23
    i32 14, label %29
    i32 13, label %35
    i32 39, label %41
    i32 27, label %50
    i32 6, label %62
  ]

17:                                               ; preds = %3
  %18 = load ptr, ptr %6, align 8, !tbaa !3
  %19 = getelementptr inbounds nuw %struct.lv_svg_attr_t, ptr %18, i32 0, i32 3
  %20 = load float, ptr %19, align 8, !tbaa !79
  %21 = load ptr, ptr %7, align 8, !tbaa !3
  %22 = getelementptr inbounds nuw %struct.lv_svg_render_image_t, ptr %21, i32 0, i32 1
  store float %20, ptr %22, align 8, !tbaa !223
  br label %75

23:                                               ; preds = %3
  %24 = load ptr, ptr %6, align 8, !tbaa !3
  %25 = getelementptr inbounds nuw %struct.lv_svg_attr_t, ptr %24, i32 0, i32 3
  %26 = load float, ptr %25, align 8, !tbaa !79
  %27 = load ptr, ptr %7, align 8, !tbaa !3
  %28 = getelementptr inbounds nuw %struct.lv_svg_render_image_t, ptr %27, i32 0, i32 2
  store float %26, ptr %28, align 4, !tbaa !224
  br label %75

29:                                               ; preds = %3
  %30 = load ptr, ptr %6, align 8, !tbaa !3
  %31 = getelementptr inbounds nuw %struct.lv_svg_attr_t, ptr %30, i32 0, i32 3
  %32 = load float, ptr %31, align 8, !tbaa !79
  %33 = load ptr, ptr %7, align 8, !tbaa !3
  %34 = getelementptr inbounds nuw %struct.lv_svg_render_image_t, ptr %33, i32 0, i32 4
  store float %32, ptr %34, align 4, !tbaa !226
  br label %75

35:                                               ; preds = %3
  %36 = load ptr, ptr %6, align 8, !tbaa !3
  %37 = getelementptr inbounds nuw %struct.lv_svg_attr_t, ptr %36, i32 0, i32 3
  %38 = load float, ptr %37, align 8, !tbaa !79
  %39 = load ptr, ptr %7, align 8, !tbaa !3
  %40 = getelementptr inbounds nuw %struct.lv_svg_render_image_t, ptr %39, i32 0, i32 3
  store float %38, ptr %40, align 8, !tbaa !225
  br label %75

41:                                               ; preds = %3
  %42 = load ptr, ptr %6, align 8, !tbaa !3
  %43 = getelementptr inbounds nuw %struct.lv_svg_attr_t, ptr %42, i32 0, i32 3
  %44 = load float, ptr %43, align 8, !tbaa !79
  %45 = fmul float %44, 2.550000e+02
  %46 = fptoui float %45 to i8
  %47 = load ptr, ptr %7, align 8, !tbaa !3
  %48 = getelementptr inbounds nuw %struct.lv_svg_render_image_t, ptr %47, i32 0, i32 5
  %49 = getelementptr inbounds nuw %struct._lv_draw_image_dsc_t, ptr %48, i32 0, i32 11
  store i8 %46, ptr %49, align 4, !tbaa !227
  br label %75

50:                                               ; preds = %3
  call void @llvm.lifetime.start.p0(i64 8, ptr %8) #8
  %51 = load ptr, ptr %6, align 8, !tbaa !3
  %52 = getelementptr inbounds nuw %struct.lv_svg_attr_t, ptr %51, i32 0, i32 3
  %53 = load ptr, ptr %52, align 8, !tbaa !79
  store ptr %53, ptr %8, align 8, !tbaa !3
  %54 = load ptr, ptr @hal_funcs, align 8, !tbaa !228
  %55 = icmp ne ptr %54, null
  br i1 %55, label %56, label %61

56:                                               ; preds = %50
  %57 = load ptr, ptr @hal_funcs, align 8, !tbaa !228
  %58 = load ptr, ptr %8, align 8, !tbaa !3
  %59 = load ptr, ptr %7, align 8, !tbaa !3
  %60 = getelementptr inbounds nuw %struct.lv_svg_render_image_t, ptr %59, i32 0, i32 5
  call void %57(ptr noundef %58, ptr noundef %60)
  br label %61

61:                                               ; preds = %56, %50
  call void @llvm.lifetime.end.p0(i64 8, ptr %8) #8
  br label %75

62:                                               ; preds = %3
  %63 = load ptr, ptr %6, align 8, !tbaa !3
  %64 = getelementptr inbounds nuw %struct.lv_svg_attr_t, ptr %63, i32 0, i32 2
  %65 = load i8, ptr %64, align 2, !tbaa !156
  %66 = zext i8 %65 to i32
  %67 = icmp eq i32 %66, 1
  br i1 %67, label %68, label %74

68:                                               ; preds = %62
  %69 = load ptr, ptr %6, align 8, !tbaa !3
  %70 = getelementptr inbounds nuw %struct.lv_svg_attr_t, ptr %69, i32 0, i32 3
  %71 = load i32, ptr %70, align 8, !tbaa !79
  %72 = load ptr, ptr %7, align 8, !tbaa !3
  %73 = getelementptr inbounds nuw %struct.lv_svg_render_image_t, ptr %72, i32 0, i32 6
  store i32 %71, ptr %73, align 8, !tbaa !221
  br label %74

74:                                               ; preds = %68, %62
  br label %75

75:                                               ; preds = %3, %74, %61, %41, %35, %29, %23, %17
  call void @llvm.lifetime.end.p0(i64 8, ptr %7) #8
  ret void
}