; Function Attrs: nounwind uwtable
define internal void @_set_image_attr(ptr noundef %0, ptr noundef %1, ptr nocapture noundef readonly %2) #0 {
  tail call void @_set_attr(ptr noundef %0, ptr noundef %1, ptr noundef %2)
  %4 = load i8, ptr %2, align 8, !tbaa !163
  switch i8 %4, label %41 [
    i8 11, label %5
    i8 12, label %9
    i8 14, label %13
    i8 13, label %17
    i8 39, label %21
    i8 27, label %27
    i8 6, label %33
  ]

5:                                                ; preds = %3
  %6 = getelementptr inbounds nuw i8, ptr %2, i64 8
  %7 = load float, ptr %6, align 8, !tbaa !165
  %8 = getelementptr inbounds nuw i8, ptr %0, i64 576
  store float %7, ptr %8, align 8, !tbaa !227
  br label %41

9:                                                ; preds = %3
  %10 = getelementptr inbounds nuw i8, ptr %2, i64 8
  %11 = load float, ptr %10, align 8, !tbaa !165
  %12 = getelementptr inbounds nuw i8, ptr %0, i64 580
  store float %11, ptr %12, align 4, !tbaa !228
  br label %41

13:                                               ; preds = %3
  %14 = getelementptr inbounds nuw i8, ptr %2, i64 8
  %15 = load float, ptr %14, align 8, !tbaa !165
  %16 = getelementptr inbounds nuw i8, ptr %0, i64 588
  store float %15, ptr %16, align 4, !tbaa !230
  br label %41

17:                                               ; preds = %3
  %18 = getelementptr inbounds nuw i8, ptr %2, i64 8
  %19 = load float, ptr %18, align 8, !tbaa !165
  %20 = getelementptr inbounds nuw i8, ptr %0, i64 584
  store float %19, ptr %20, align 8, !tbaa !229
  br label %41

21:                                               ; preds = %3
  %22 = getelementptr inbounds nuw i8, ptr %2, i64 8
  %23 = load float, ptr %22, align 8, !tbaa !165
  %24 = fmul float %23, 2.550000e+02
  %25 = fptoui float %24 to i8
  %26 = getelementptr inbounds nuw i8, ptr %0, i64 692
  store i8 %25, ptr %26, align 4, !tbaa !231
  br label %41

27:                                               ; preds = %3
  %28 = load ptr, ptr @hal_funcs, align 8, !tbaa !232
  %.not = icmp eq ptr %28, null
  br i1 %.not, label %41, label %29

29:                                               ; preds = %27
  %30 = getelementptr inbounds nuw i8, ptr %2, i64 8
  %31 = load ptr, ptr %30, align 8, !tbaa !165
  %32 = getelementptr inbounds nuw i8, ptr %0, i64 592
  tail call void %28(ptr noundef %31, ptr noundef nonnull %32) #9
  br label %41

33:                                               ; preds = %3
  %34 = getelementptr inbounds nuw i8, ptr %2, i64 2
  %35 = load i8, ptr %34, align 2, !tbaa !166
  %36 = icmp eq i8 %35, 1
  br i1 %36, label %37, label %41

37:                                               ; preds = %33
  %38 = getelementptr inbounds nuw i8, ptr %2, i64 8
  %39 = load i32, ptr %38, align 8, !tbaa !165
  %40 = getelementptr inbounds nuw i8, ptr %0, i64 736
  store i32 %39, ptr %40, align 8, !tbaa !225
  br label %41

41:                                               ; preds = %27, %29, %33, %37, %21, %17, %13, %9, %5, %3
  ret void
}